; Function Attrs: null_pointer_is_valid sspstrong uwtable
define internal i32 @dissect_h225_FeatureDescriptor(ptr noundef %0, i32 noundef %1, ptr noundef %2, ptr noundef %3, i32 noundef %4) #0 {
  %6 = getelementptr inbounds nuw i8, ptr %2, i64 48
  %7 = load ptr, ptr %6, align 8
  %8 = getelementptr inbounds nuw i8, ptr %2, i64 16
  %9 = load ptr, ptr %8, align 8
  %10 = getelementptr inbounds nuw i8, ptr %9, i64 408
  %11 = load ptr, ptr %10, align 8
  %12 = tail call ptr @gef_ctx_alloc(ptr noundef %11, ptr noundef null, ptr noundef nonnull @.str.468)
  store ptr %12, ptr %6, align 8
  %13 = tail call i32 @dissect_h225_GenericData(ptr noundef %0, i32 noundef %1, ptr noundef %2, ptr noundef %3, i32 noundef %4)
  store ptr %7, ptr %6, align 8
  ret i32 %13
}